target datalayout = "e-m:e-p270:32:32-p271:32:32-p272:64:64-i64:64-i128:128-f80:128-n8:16:32:64-S128"
target triple = "x86_64-pc-linux-gnu"

%struct.PLwdatum = type { ptr, ptr, i8, ptr }
%struct.PLpgSQL_function = type { ptr, i32, i32, %struct.ItemPointerData, i32, i32, ptr, ptr, i32, i32, i8, i8, i8, i8, i8, i8, i32, [100 x i32], i32, i32, i32, i32, i32, i8, i32, i32, i32, ptr, i64, ptr, i32, i8, i8, ptr, i64 }
%struct.ItemPointerData = type { %struct.BlockIdData, i16 }
%struct.BlockIdData = type { i16, i16 }
%struct.PLpgSQL_datum = type { i32, i32 }
%struct.PLpgSQL_stmt_return_next = type { i32, i32, i32, ptr, i32 }

@plpgsql_curr_compile = external global ptr, align 8
@.str.2 = private unnamed_addr constant [11 x i8] c"plpgsql-18\00", align 1
@.str.4 = private unnamed_addr constant [10 x i8] c"pl_gram.y\00", align 1
@.str.12 = private unnamed_addr constant [2 x i8] c";\00", align 1
@.str.112 = private unnamed_addr constant [47 x i8] c"cannot use RETURN NEXT in a non-SETOF function\00", align 1
@__func__.make_return_next_stmt = private unnamed_addr constant [22 x i8] c"make_return_next_stmt\00", align 1
@.str.113 = private unnamed_addr constant [68 x i8] c"RETURN NEXT cannot have a parameter in function with OUT parameters\00", align 1

; Function Attrs: nounwind uwtable
define internal ptr @read_sql_expression(i32 noundef %0, ptr noundef %1, ptr noundef %2, ptr noundef %3, ptr noundef %4) #0 {
  %6 = alloca i32, align 4
  %7 = alloca ptr, align 8
  %8 = alloca ptr, align 8
  %9 = alloca ptr, align 8
  %10 = alloca ptr, align 8
  store i32 %0, ptr %6, align 4
  store ptr %1, ptr %7, align 8
  store ptr %2, ptr %8, align 8
  store ptr %3, ptr %9, align 8
  store ptr %4, ptr %10, align 8
  %11 = load i32, ptr %6, align 4
  %12 = load ptr, ptr %7, align 8
  %13 = load ptr, ptr %8, align 8
  %14 = load ptr, ptr %9, align 8
  %15 = load ptr, ptr %10, align 8
  %16 = call ptr @read_sql_construct(i32 noundef %11, i32 noundef 0, i32 noundef 0, ptr noundef %12, i32 noundef 2, i1 noundef zeroext true, i1 noundef zeroext true, ptr noundef null, ptr noundef null, ptr noundef %13, ptr noundef %14, ptr noundef %15)
  ret ptr %16
}

; Function Attrs: nounwind uwtable
define internal ptr @make_return_next_stmt(i32 noundef %0, ptr noundef %1, ptr noundef %2, ptr noundef %3) #0 {
  %5 = alloca i32, align 4
  %6 = alloca ptr, align 8
  %7 = alloca ptr, align 8
  %8 = alloca ptr, align 8
  %9 = alloca ptr, align 8
  %10 = alloca i32, align 4
  store i32 %0, ptr %5, align 4
  store ptr %1, ptr %6, align 8
  store ptr %2, ptr %7, align 8
  store ptr %3, ptr %8, align 8
  call void @llvm.lifetime.start.p0(i64 8, ptr %9) #10
  %11 = load ptr, ptr @plpgsql_curr_compile, align 8
  %12 = getelementptr inbounds nuw %struct.PLpgSQL_function, ptr %11, i32 0, i32 13
  %13 = load i8, ptr %12, align 1, !range !3, !noundef !4
  %14 = trunc i8 %13 to i1
  br i1 %14, label %30, label %15

15:                                               ; preds = %4
  br label %16

16:                                               ; preds = %15
  br i1 true, label %17, label %19

17:                                               ; preds = %16
  %18 = call zeroext i1 @errstart_cold(i32 noundef 21, ptr noundef @.str.2) #12
  br i1 %18, label %21, label %27

19:                                               ; preds = %16
  %20 = call zeroext i1 @errstart(i32 noundef 21, ptr noundef @.str.2)
  br i1 %20, label %21, label %27

21:                                               ; preds = %19, %17
  %22 = call i32 @errcode(i32 noundef 67141764)
  %23 = call i32 (ptr, ...) @errmsg(ptr noundef @.str.112)
  %24 = load i32, ptr %5, align 4
  %25 = load ptr, ptr %8, align 8
  %26 = call i32 @plpgsql_scanner_errposition(i32 noundef %24, ptr noundef %25)
  call void @errfinish(ptr noundef @.str.4, i32 noundef 3445, ptr noundef @__func__.make_return_next_stmt)
  br label %27

27:                                               ; preds = %21, %19, %17
  unreachable

28:                                               ; No predecessors!
  br label %29

29:                                               ; preds = %28
  br label %30

30:                                               ; preds = %29, %4
  %31 = call ptr @palloc0(i64 noundef 32)
  store ptr %31, ptr %9, align 8
  %32 = load ptr, ptr %9, align 8
  %33 = getelementptr inbounds nuw %struct.PLpgSQL_stmt_return_next, ptr %32, i32 0, i32 0
  store i32 12, ptr %33, align 8
  %34 = load i32, ptr %5, align 4
  %35 = load ptr, ptr %8, align 8
  %36 = call i32 @plpgsql_location_to_lineno(i32 noundef %34, ptr noundef %35)
  %37 = load ptr, ptr %9, align 8
  %38 = getelementptr inbounds nuw %struct.PLpgSQL_stmt_return_next, ptr %37, i32 0, i32 1
  store i32 %36, ptr %38, align 4
  %39 = load ptr, ptr @plpgsql_curr_compile, align 8
  %40 = getelementptr inbounds nuw %struct.PLpgSQL_function, ptr %39, i32 0, i32 30
  %41 = load i32, ptr %40, align 8
  %42 = add i32 %41, 1
  store i32 %42, ptr %40, align 8
  %43 = load ptr, ptr %9, align 8
  %44 = getelementptr inbounds nuw %struct.PLpgSQL_stmt_return_next, ptr %43, i32 0, i32 2
  store i32 %42, ptr %44, align 8
  %45 = load ptr, ptr %9, align 8
  %46 = getelementptr inbounds nuw %struct.PLpgSQL_stmt_return_next, ptr %45, i32 0, i32 3
  store ptr null, ptr %46, align 8
  %47 = load ptr, ptr %9, align 8
  %48 = getelementptr inbounds nuw %struct.PLpgSQL_stmt_return_next, ptr %47, i32 0, i32 4
  store i32 -1, ptr %48, align 8
  %49 = load ptr, ptr @plpgsql_curr_compile, align 8
  %50 = getelementptr inbounds nuw %struct.PLpgSQL_function, ptr %49, i32 0, i32 18
  %51 = load i32, ptr %50, align 4
  %52 = icmp sge i32 %51, 0
  br i1 %52, label %53, label %81

53:                                               ; preds = %30
  %54 = load ptr, ptr %6, align 8
  %55 = load ptr, ptr %7, align 8
  %56 = load ptr, ptr %8, align 8
  %57 = call i32 @plpgsql_yylex(ptr noundef %54, ptr noundef %55, ptr noundef %56)
  %58 = icmp ne i32 %57, 59
  br i1 %58, label %59, label %75

59:                                               ; preds = %53
  br label %60

60:                                               ; preds = %59
  br i1 true, label %61, label %63

61:                                               ; preds = %60
  %62 = call zeroext i1 @errstart_cold(i32 noundef 21, ptr noundef @.str.2) #12
  br i1 %62, label %65, label %72

63:                                               ; preds = %60
  %64 = call zeroext i1 @errstart(i32 noundef 21, ptr noundef @.str.2)
  br i1 %64, label %65, label %72

65:                                               ; preds = %63, %61
  %66 = call i32 @errcode(i32 noundef 67141764)
  %67 = call i32 (ptr, ...) @errmsg(ptr noundef @.str.113)
  %68 = load ptr, ptr %7, align 8
  %69 = load i32, ptr %68, align 4
  %70 = load ptr, ptr %8, align 8
  %71 = call i32 @plpgsql_scanner_errposition(i32 noundef %69, ptr noundef %70)
  call void @errfinish(ptr noundef @.str.4, i32 noundef 3460, ptr noundef @__func__.make_return_next_stmt)
  br label %72

72:                                               ; preds = %65, %63, %61
  unreachable

73:                                               ; No predecessors!
  br label %74

74:                                               ; preds = %73
  br label %75

75:                                               ; preds = %74, %53
  %76 = load ptr, ptr @plpgsql_curr_compile, align 8
  %77 = getelementptr inbounds nuw %struct.PLpgSQL_function, ptr %76, i32 0, i32 18
  %78 = load i32, ptr %77, align 4
  %79 = load ptr, ptr %9, align 8
  %80 = getelementptr inbounds nuw %struct.PLpgSQL_stmt_return_next, ptr %79, i32 0, i32 4
  store i32 %78, ptr %80, align 8
  br label %144

81:                                               ; preds = %30
  call void @llvm.lifetime.start.p0(i64 4, ptr %10) #10
  %82 = load ptr, ptr %6, align 8
  %83 = load ptr, ptr %7, align 8
  %84 = load ptr, ptr %8, align 8
  %85 = call i32 @plpgsql_yylex(ptr noundef %82, ptr noundef %83, ptr noundef %84)
  store i32 %85, ptr %10, align 4
  %86 = load i32, ptr %10, align 4
  %87 = icmp eq i32 %86, 277
  br i1 %87, label %88, label %132

88:                                               ; preds = %81
  %89 = load ptr, ptr %8, align 8
  %90 = call i32 @plpgsql_peek(ptr noundef %89)
  %91 = icmp eq i32 %90, 59
  br i1 %91, label %92, label %132

92:                                               ; preds = %88
  %93 = load ptr, ptr %6, align 8
  %94 = getelementptr inbounds nuw %struct.PLwdatum, ptr %93, i32 0, i32 0
  %95 = load ptr, ptr %94, align 8
  %96 = getelementptr inbounds nuw %struct.PLpgSQL_datum, ptr %95, i32 0, i32 0
  %97 = load i32, ptr %96, align 4
  %98 = icmp eq i32 %97, 0
  br i1 %98, label %120, label %99

99:                                               ; preds = %92
  %100 = load ptr, ptr %6, align 8
  %101 = getelementptr inbounds nuw %struct.PLwdatum, ptr %100, i32 0, i32 0
  %102 = load ptr, ptr %101, align 8
  %103 = getelementptr inbounds nuw %struct.PLpgSQL_datum, ptr %102, i32 0, i32 0
  %104 = load i32, ptr %103, align 4
  %105 = icmp eq i32 %104, 4
  br i1 %105, label %120, label %106

106:                                              ; preds = %99
  %107 = load ptr, ptr %6, align 8
  %108 = getelementptr inbounds nuw %struct.PLwdatum, ptr %107, i32 0, i32 0
  %109 = load ptr, ptr %108, align 8
  %110 = getelementptr inbounds nuw %struct.PLpgSQL_datum, ptr %109, i32 0, i32 0
  %111 = load i32, ptr %110, align 4
  %112 = icmp eq i32 %111, 1
  br i1 %112, label %120, label %113

113:                                              ; preds = %106
  %114 = load ptr, ptr %6, align 8
  %115 = getelementptr inbounds nuw %struct.PLwdatum, ptr %114, i32 0, i32 0
  %116 = load ptr, ptr %115, align 8
  %117 = getelementptr inbounds nuw %struct.PLpgSQL_datum, ptr %116, i32 0, i32 0
  %118 = load i32, ptr %117, align 4
  %119 = icmp eq i32 %118, 2
  br i1 %119, label %120, label %132

120:                                              ; preds = %113, %106, %99, %92
  %121 = load ptr, ptr %6, align 8
  %122 = getelementptr inbounds nuw %struct.PLwdatum, ptr %121, i32 0, i32 0
  %123 = load ptr, ptr %122, align 8
  %124 = getelementptr inbounds nuw %struct.PLpgSQL_datum, ptr %123, i32 0, i32 1
  %125 = load i32, ptr %124, align 4
  %126 = load ptr, ptr %9, align 8
  %127 = getelementptr inbounds nuw %struct.PLpgSQL_stmt_return_next, ptr %126, i32 0, i32 4
  store i32 %125, ptr %127, align 8
  %128 = load ptr, ptr %6, align 8
  %129 = load ptr, ptr %7, align 8
  %130 = load ptr, ptr %8, align 8
  %131 = call i32 @plpgsql_yylex(ptr noundef %128, ptr noundef %129, ptr noundef %130)
  store i32 %131, ptr %10, align 4
  br label %143

132:                                              ; preds = %113, %88, %81
  %133 = load i32, ptr %10, align 4
  %134 = load ptr, ptr %6, align 8
  %135 = load ptr, ptr %7, align 8
  %136 = load ptr, ptr %8, align 8
  call void @plpgsql_push_back_token(i32 noundef %133, ptr noundef %134, ptr noundef %135, ptr noundef %136)
  %137 = load ptr, ptr %6, align 8
  %138 = load ptr, ptr %7, align 8
  %139 = load ptr, ptr %8, align 8
  %140 = call ptr @read_sql_expression(i32 noundef 59, ptr noundef @.str.12, ptr noundef %137, ptr noundef %138, ptr noundef %139)
  %141 = load ptr, ptr %9, align 8
  %142 = getelementptr inbounds nuw %struct.PLpgSQL_stmt_return_next, ptr %141, i32 0, i32 3
  store ptr %140, ptr %142, align 8
  br label %143

143:                                              ; preds = %132, %120
  call void @llvm.lifetime.end.p0(i64 4, ptr %10) #10
  br label %144

144:                                              ; preds = %143, %75
  %145 = load ptr, ptr %9, align 8
  call void @llvm.lifetime.end.p0(i64 8, ptr %9) #10
  ret ptr %145
}