; Function Attrs: nounwind uwtable
define internal fastcc noundef ptr @make_return_next_stmt(i32 noundef %0, ptr noundef nonnull %1, ptr noundef nonnull %2, ptr noundef %3) unnamed_addr #0 {
  %5 = load ptr, ptr @plpgsql_curr_compile, align 8
  %6 = getelementptr inbounds nuw i8, ptr %5, i64 59
  %7 = load i8, ptr %6, align 1, !range !3, !noundef !4
  %8 = trunc nuw i8 %7 to i1
  br i1 %8, label %14, label %9

9:                                                ; preds = %4
  %10 = tail call zeroext i1 @errstart_cold(i32 noundef 21, ptr noundef nonnull @.str.2) #14
  tail call void @llvm.assume(i1 %10)
  %11 = tail call i32 @errcode(i32 noundef 67141764) #12
  %12 = tail call i32 (ptr, ...) @errmsg(ptr noundef nonnull @.str.112) #12
  %13 = tail call i32 @plpgsql_scanner_errposition(i32 noundef %0, ptr noundef %3) #12
  tail call void @errfinish(ptr noundef nonnull @.str.4, i32 noundef 3445, ptr noundef nonnull @__func__.make_return_next_stmt) #12
  unreachable

14:                                               ; preds = %4
  %15 = tail call ptr @palloc0(i64 noundef 32) #12
  store i32 12, ptr %15, align 8
  %16 = tail call i32 @plpgsql_location_to_lineno(i32 noundef %0, ptr noundef %3) #12
  %17 = getelementptr inbounds nuw i8, ptr %15, i64 4
  store i32 %16, ptr %17, align 4
  %18 = load ptr, ptr @plpgsql_curr_compile, align 8
  %19 = getelementptr inbounds nuw i8, ptr %18, i64 528
  %20 = load i32, ptr %19, align 8
  %21 = add i32 %20, 1
  store i32 %21, ptr %19, align 8
  %22 = getelementptr inbounds nuw i8, ptr %15, i64 8
  store i32 %21, ptr %22, align 8
  %23 = getelementptr inbounds nuw i8, ptr %15, i64 16
  store ptr null, ptr %23, align 8
  %24 = getelementptr inbounds nuw i8, ptr %15, i64 24
  store i32 -1, ptr %24, align 8
  %25 = getelementptr inbounds nuw i8, ptr %18, i64 468
  %26 = load i32, ptr %25, align 4
  %27 = icmp sgt i32 %26, -1
  %28 = tail call i32 @plpgsql_yylex(ptr noundef nonnull %1, ptr noundef nonnull %2, ptr noundef %3) #12
  br i1 %27, label %29, label %40

29:                                               ; preds = %14
  %.not = icmp eq i32 %28, 59
  br i1 %.not, label %36, label %30

30:                                               ; preds = %29
  %31 = tail call zeroext i1 @errstart_cold(i32 noundef 21, ptr noundef nonnull @.str.2) #14
  tail call void @llvm.assume(i1 %31)
  %32 = tail call i32 @errcode(i32 noundef 67141764) #12
  %33 = tail call i32 (ptr, ...) @errmsg(ptr noundef nonnull @.str.113) #12
  %34 = load i32, ptr %2, align 4
  %35 = tail call i32 @plpgsql_scanner_errposition(i32 noundef %34, ptr noundef %3) #12
  tail call void @errfinish(ptr noundef nonnull @.str.4, i32 noundef 3460, ptr noundef nonnull @__func__.make_return_next_stmt) #12
  unreachable

36:                                               ; preds = %29
  %37 = load ptr, ptr @plpgsql_curr_compile, align 8
  %38 = getelementptr inbounds nuw i8, ptr %37, i64 468
  %39 = load i32, ptr %38, align 4
  store i32 %39, ptr %24, align 8
  br label %54

40:                                               ; preds = %14
  %41 = icmp eq i32 %28, 277
  br i1 %41, label %42, label %52

42:                                               ; preds = %40
  %43 = tail call i32 @plpgsql_peek(ptr noundef %3) #12
  %44 = icmp eq i32 %43, 59
  br i1 %44, label %45, label %52

45:                                               ; preds = %42
  %46 = load ptr, ptr %1, align 8
  %47 = load i32, ptr %46, align 4
  switch i32 %47, label %52 [
    i32 0, label %48
    i32 4, label %48
    i32 1, label %48
    i32 2, label %48
  ]

48:                                               ; preds = %45, %45, %45, %45
  %49 = getelementptr inbounds nuw i8, ptr %46, i64 4
  %50 = load i32, ptr %49, align 4
  store i32 %50, ptr %24, align 8
  %51 = tail call i32 @plpgsql_yylex(ptr noundef nonnull %1, ptr noundef nonnull %2, ptr noundef %3) #12
  br label %54

52:                                               ; preds = %45, %42, %40
  tail call void @plpgsql_push_back_token(i32 noundef %28, ptr noundef nonnull %1, ptr noundef nonnull %2, ptr noundef %3) #12
  %53 = tail call fastcc ptr @read_sql_construct(i32 noundef 59, i32 noundef 0, i32 noundef 0, ptr noundef nonnull @.str.12, i32 noundef 2, i1 noundef zeroext true, i1 noundef zeroext true, ptr noundef null, ptr noundef null, ptr noundef nonnull %1, ptr noundef nonnull %2, ptr noundef %3)
  store ptr %53, ptr %23, align 8
  br label %54

54:                                               ; preds = %48, %52, %36
  ret ptr %15
}